; Function Attrs: null_pointer_is_valid sspstrong uwtable
define internal ptr @rtp_value(ptr noundef %0) #1 {
  %2 = getelementptr inbounds nuw i8, ptr %0, i64 408
  %3 = load ptr, ptr %2, align 8
  %4 = load i32, ptr @proto_rtp, align 4
  %5 = tail call ptr @p_get_proto_data(ptr noundef %3, ptr noundef %0, i32 noundef %4, i32 noundef 1)
  %6 = ptrtoint ptr %5 to i64
  %7 = and i64 %6, 4294967295
  %8 = inttoptr i64 %7 to ptr
  ret ptr %8
}